; Function Attrs: mustprogress uwtable
define void @_ZN2cv4gapi23buildOpticalFlowPyramidERKNS_4GMatERKNS_5Size_IiEERKNS_7GScalarEbiib(ptr dead_on_unwind noalias writable sret(%"class.std::tuple") align 8 %0, ptr noundef nonnull readonly align 8 captures(none) dereferenceable(16) %1, ptr noundef nonnull readonly align 4 captures(none) dereferenceable(8) %2, ptr noundef nonnull readonly align 8 captures(none) dereferenceable(16) %3, i1 noundef zeroext %4, i32 noundef %5, i32 noundef %6, i1 noundef zeroext %7) local_unnamed_addr #3 personality ptr @__gxx_personality_v0 {
  %9 = alloca %"class.cv::GMat", align 8
  %10 = alloca %"class.cv::GScalar", align 8
  %11 = load ptr, ptr %1, align 8, !tbaa !3
  store ptr %11, ptr %9, align 8, !tbaa !3
  %12 = getelementptr inbounds nuw i8, ptr %9, i64 8
  %13 = getelementptr inbounds nuw i8, ptr %1, i64 8
  %14 = load ptr, ptr %13, align 8, !tbaa !11
  store ptr %14, ptr %12, align 8, !tbaa !11
  %.not.i.i.i.i = icmp eq ptr %14, null
  br i1 %.not.i.i.i.i, label %_ZN2cv4GMatC2ERKS0_.exit, label %15

15:                                               ; preds = %8
  %16 = getelementptr inbounds nuw i8, ptr %14, i64 8
  %17 = load i8, ptr @__libc_single_threaded, align 1, !tbaa !12
  %.not.i.i.i.i.i = icmp eq i8 %17, 0
  br i1 %.not.i.i.i.i.i, label %21, label %18

18:                                               ; preds = %15
  %19 = load i32, ptr %16, align 4, !tbaa !13
  %20 = add nsw i32 %19, 1
  store i32 %20, ptr %16, align 4, !tbaa !13
  br label %_ZN2cv4GMatC2ERKS0_.exit

21:                                               ; preds = %15
  %22 = atomicrmw volatile add ptr %16, i32 1 acq_rel, align 4
  br label %_ZN2cv4GMatC2ERKS0_.exit

_ZN2cv4GMatC2ERKS0_.exit:                         ; preds = %8, %18, %21
  %.sroa.0.0.copyload = load i64, ptr %2, align 4
  %23 = load ptr, ptr %3, align 8, !tbaa !3
  store ptr %23, ptr %10, align 8, !tbaa !3
  %24 = getelementptr inbounds nuw i8, ptr %10, i64 8
  %25 = getelementptr inbounds nuw i8, ptr %3, i64 8
  %26 = load ptr, ptr %25, align 8, !tbaa !11
  store ptr %26, ptr %24, align 8, !tbaa !11
  %.not.i.i.i.i8 = icmp eq ptr %26, null
  br i1 %.not.i.i.i.i8, label %_ZN2cv7GScalarC2ERKS0_.exit, label %27

27:                                               ; preds = %_ZN2cv4GMatC2ERKS0_.exit
  %28 = getelementptr inbounds nuw i8, ptr %26, i64 8
  %29 = load i8, ptr @__libc_single_threaded, align 1, !tbaa !12
  %.not.i.i.i.i.i9 = icmp eq i8 %29, 0
  br i1 %.not.i.i.i.i.i9, label %33, label %30

30:                                               ; preds = %27
  %31 = load i32, ptr %28, align 4, !tbaa !13
  %32 = add nsw i32 %31, 1
  store i32 %32, ptr %28, align 4, !tbaa !13
  br label %_ZN2cv7GScalarC2ERKS0_.exit

33:                                               ; preds = %27
  %34 = atomicrmw volatile add ptr %28, i32 1 acq_rel, align 4
  br label %_ZN2cv7GScalarC2ERKS0_.exit

_ZN2cv7GScalarC2ERKS0_.exit:                      ; preds = %_ZN2cv4GMatC2ERKS0_.exit, %30, %33
  invoke void @_ZN2cv12GKernelTypeMINS_4gapi5video20GBuildOptFlowPyramidESt8functionIFSt5tupleIJNS_6GArrayINS_4GMatEEENS_7GScalarEEES7_NS_5Size_IiEES9_biibEEE2onES7_SC_S9_biib(ptr dead_on_unwind writable sret(%"class.std::tuple") align 8 %0, ptr noundef nonnull %9, i64 %.sroa.0.0.copyload, ptr noundef nonnull %10, i1 noundef zeroext %4, i32 noundef %5, i32 noundef %6, i1 noundef zeroext %7)
          to label %35 unwind label %80

35:                                               ; preds = %_ZN2cv7GScalarC2ERKS0_.exit
  %36 = load ptr, ptr %24, align 8, !tbaa !11
  %.not.i.i.i = icmp eq ptr %36, null
  br i1 %.not.i.i.i, label %_ZN2cv7GScalarD2Ev.exit, label %37

37:                                               ; preds = %35
  %38 = getelementptr inbounds nuw i8, ptr %36, i64 8
  %39 = load atomic i64, ptr %38 acquire, align 8
  %40 = icmp eq i64 %39, 4294967297
  %41 = trunc i64 %39 to i32
  br i1 %40, label %42, label %50

42:                                               ; preds = %37
  store i32 0, ptr %38, align 8, !tbaa !15
  %43 = getelementptr inbounds nuw i8, ptr %36, i64 12
  store i32 0, ptr %43, align 4, !tbaa !17
  %44 = load ptr, ptr %36, align 8, !tbaa !18
  %45 = getelementptr inbounds nuw i8, ptr %44, i64 16
  %46 = load ptr, ptr %45, align 8
  call void %46(ptr noundef nonnull align 8 dereferenceable(16) %36) #22
  %47 = load ptr, ptr %36, align 8, !tbaa !18
  %48 = getelementptr inbounds nuw i8, ptr %47, i64 24
  %49 = load ptr, ptr %48, align 8
  call void %49(ptr noundef nonnull align 8 dereferenceable(16) %36) #22
  br label %_ZN2cv7GScalarD2Ev.exit

50:                                               ; preds = %37
  %51 = load i8, ptr @__libc_single_threaded, align 1, !tbaa !12
  %.not.i.i.i.i10 = icmp eq i8 %51, 0
  br i1 %.not.i.i.i.i10, label %54, label %52

52:                                               ; preds = %50
  %53 = add nsw i32 %41, -1
  store i32 %53, ptr %38, align 4, !tbaa !13
  br label %_ZN9__gnu_cxx27__exchange_and_add_dispatchEPii.exit.i.i.i.i

54:                                               ; preds = %50
  %55 = atomicrmw volatile add ptr %38, i32 -1 acq_rel, align 4
  br label %_ZN9__gnu_cxx27__exchange_and_add_dispatchEPii.exit.i.i.i.i

_ZN9__gnu_cxx27__exchange_and_add_dispatchEPii.exit.i.i.i.i: ; preds = %54, %52
  %.0.i.i.i.i.i = phi i32 [ %41, %52 ], [ %55, %54 ]
  %56 = icmp eq i32 %.0.i.i.i.i.i, 1
  br i1 %56, label %57, label %_ZN2cv7GScalarD2Ev.exit, !prof !20

57:                                               ; preds = %_ZN9__gnu_cxx27__exchange_and_add_dispatchEPii.exit.i.i.i.i
  call void @_ZNSt16_Sp_counted_baseILN9__gnu_cxx12_Lock_policyE2EE24_M_release_last_use_coldEv(ptr noundef nonnull align 8 dereferenceable(16) %36) #22
  br label %_ZN2cv7GScalarD2Ev.exit

_ZN2cv7GScalarD2Ev.exit:                          ; preds = %35, %42, %_ZN9__gnu_cxx27__exchange_and_add_dispatchEPii.exit.i.i.i.i, %57
  %58 = load ptr, ptr %12, align 8, !tbaa !11
  %.not.i.i.i11 = icmp eq ptr %58, null
  br i1 %.not.i.i.i11, label %_ZN2cv4GMatD2Ev.exit, label %59

59:                                               ; preds = %_ZN2cv7GScalarD2Ev.exit
  %60 = getelementptr inbounds nuw i8, ptr %58, i64 8
  %61 = load atomic i64, ptr %60 acquire, align 8
  %62 = icmp eq i64 %61, 4294967297
  %63 = trunc i64 %61 to i32
  br i1 %62, label %64, label %72

64:                                               ; preds = %59
  store i32 0, ptr %60, align 8, !tbaa !15
  %65 = getelementptr inbounds nuw i8, ptr %58, i64 12
  store i32 0, ptr %65, align 4, !tbaa !17
  %66 = load ptr, ptr %58, align 8, !tbaa !18
  %67 = getelementptr inbounds nuw i8, ptr %66, i64 16
  %68 = load ptr, ptr %67, align 8
  call void %68(ptr noundef nonnull align 8 dereferenceable(16) %58) #22
  %69 = load ptr, ptr %58, align 8, !tbaa !18
  %70 = getelementptr inbounds nuw i8, ptr %69, i64 24
  %71 = load ptr, ptr %70, align 8
  call void %71(ptr noundef nonnull align 8 dereferenceable(16) %58) #22
  br label %_ZN2cv4GMatD2Ev.exit

72:                                               ; preds = %59
  %73 = load i8, ptr @__libc_single_threaded, align 1, !tbaa !12
  %.not.i.i.i.i12 = icmp eq i8 %73, 0
  br i1 %.not.i.i.i.i12, label %76, label %74

74:                                               ; preds = %72
  %75 = add nsw i32 %63, -1
  store i32 %75, ptr %60, align 4, !tbaa !13
  br label %_ZN9__gnu_cxx27__exchange_and_add_dispatchEPii.exit.i.i.i.i13

76:                                               ; preds = %72
  %77 = atomicrmw volatile add ptr %60, i32 -1 acq_rel, align 4
  br label %_ZN9__gnu_cxx27__exchange_and_add_dispatchEPii.exit.i.i.i.i13

_ZN9__gnu_cxx27__exchange_and_add_dispatchEPii.exit.i.i.i.i13: ; preds = %76, %74
  %.0.i.i.i.i.i14 = phi i32 [ %63, %74 ], [ %77, %76 ]
  %78 = icmp eq i32 %.0.i.i.i.i.i14, 1
  br i1 %78, label %79, label %_ZN2cv4GMatD2Ev.exit, !prof !20

79:                                               ; preds = %_ZN9__gnu_cxx27__exchange_and_add_dispatchEPii.exit.i.i.i.i13
  call void @_ZNSt16_Sp_counted_baseILN9__gnu_cxx12_Lock_policyE2EE24_M_release_last_use_coldEv(ptr noundef nonnull align 8 dereferenceable(16) %58) #22
  br label %_ZN2cv4GMatD2Ev.exit

_ZN2cv4GMatD2Ev.exit:                             ; preds = %_ZN2cv7GScalarD2Ev.exit, %64, %_ZN9__gnu_cxx27__exchange_and_add_dispatchEPii.exit.i.i.i.i13, %79
  ret void

80:                                               ; preds = %_ZN2cv7GScalarC2ERKS0_.exit
  %81 = landingpad { ptr, i32 }
          cleanup
  call void @_ZN2cv7GScalarD2Ev(ptr noundef nonnull align 8 dereferenceable(16) %10) #22
  call void @_ZN2cv4GMatD2Ev(ptr noundef nonnull align 8 dereferenceable(16) %9) #22
  resume { ptr, i32 } %81
}